target datalayout = "e-m:e-p270:32:32-p271:32:32-p272:64:64-i64:64-i128:128-f80:128-n8:16:32:64-S128"
target triple = "x86_64-pc-linux-gnu"

%struct.GetByteContext = type { ptr, ptr, ptr }

; Function Attrs: alwaysinline nounwind uwtable
define internal i32 @bytestream2_get_bufferu(ptr noundef %0, ptr noundef %1, i32 noundef %2) #2 {
  %4 = alloca ptr, align 8
  %5 = alloca ptr, align 8
  %6 = alloca i32, align 4
  store ptr %0, ptr %4, align 8, !tbaa !40
  store ptr %1, ptr %5, align 8, !tbaa !38
  store i32 %2, ptr %6, align 4, !tbaa !15
  %7 = load ptr, ptr %5, align 8, !tbaa !38
  %8 = load ptr, ptr %4, align 8, !tbaa !40
  %9 = getelementptr inbounds nuw %struct.GetByteContext, ptr %8, i32 0, i32 0
  %10 = load ptr, ptr %9, align 8, !tbaa !42
  %11 = load i32, ptr %6, align 4, !tbaa !15
  %12 = zext i32 %11 to i64
  call void @llvm.memcpy.p0.p0.i64(ptr align 1 %7, ptr align 1 %10, i64 %12, i1 false)
  %13 = load i32, ptr %6, align 4, !tbaa !15
  %14 = load ptr, ptr %4, align 8, !tbaa !40
  %15 = getelementptr inbounds nuw %struct.GetByteContext, ptr %14, i32 0, i32 0
  %16 = load ptr, ptr %15, align 8, !tbaa !42
  %17 = zext i32 %13 to i64
  %18 = getelementptr inbounds nuw i8, ptr %16, i64 %17
  store ptr %18, ptr %15, align 8, !tbaa !42
  %19 = load i32, ptr %6, align 4, !tbaa !15
  ret i32 %19
}

; Function Attrs: alwaysinline nounwind uwtable
define internal i32 @bytestream2_get_bytes_left(ptr noundef %0) #2 {
  %2 = alloca ptr, align 8
  store ptr %0, ptr %2, align 8, !tbaa !40
  %3 = load ptr, ptr %2, align 8, !tbaa !40
  %4 = getelementptr inbounds nuw %struct.GetByteContext, ptr %3, i32 0, i32 1
  %5 = load ptr, ptr %4, align 8, !tbaa !45
  %6 = load ptr, ptr %2, align 8, !tbaa !40
  %7 = getelementptr inbounds nuw %struct.GetByteContext, ptr %6, i32 0, i32 0
  %8 = load ptr, ptr %7, align 8, !tbaa !42
  %9 = ptrtoint ptr %5 to i64
  %10 = ptrtoint ptr %8 to i64
  %11 = sub i64 %9, %10
  %12 = trunc i64 %11 to i32
  ret i32 %12
}

; Function Attrs: nounwind uwtable
define internal i32 @read_uncompressed_sgi(ptr noundef %0, ptr noundef %1, ptr noundef %2, i32 noundef %3, i32 noundef %4, i32 noundef %5, i32 noundef %6) #0 {
  %8 = alloca i32, align 4
  %9 = alloca ptr, align 8
  %10 = alloca ptr, align 8
  %11 = alloca ptr, align 8
  %12 = alloca i32, align 4
  %13 = alloca i32, align 4
  %14 = alloca i32, align 4
  %15 = alloca i32, align 4
  %16 = alloca i32, align 4
  %17 = alloca i32, align 4
  %18 = alloca i32, align 4
  %19 = alloca ptr, align 8
  store ptr %0, ptr %9, align 8, !tbaa !47
  store ptr %1, ptr %10, align 8, !tbaa !49
  store ptr %2, ptr %11, align 8, !tbaa !40
  store i32 %3, ptr %12, align 4, !tbaa !15
  store i32 %4, ptr %13, align 4, !tbaa !15
  store i32 %5, ptr %14, align 4, !tbaa !15
  store i32 %6, ptr %15, align 4, !tbaa !15
  call void @llvm.lifetime.start.p0(i64 4, ptr %16) #7
  %20 = load i32, ptr %12, align 4, !tbaa !15
  %21 = load i32, ptr %15, align 4, !tbaa !15
  %22 = mul i32 %20, %21
  store i32 %22, ptr %16, align 4, !tbaa !15
  %23 = load i32, ptr %16, align 4, !tbaa !15
  %24 = zext i32 %23 to i64
  %25 = load i32, ptr %13, align 4, !tbaa !15
  %26 = sext i32 %25 to i64
  %27 = mul nsw i64 %24, %26
  %28 = load i32, ptr %14, align 4, !tbaa !15
  %29 = zext i32 %28 to i64
  %30 = mul nsw i64 %27, %29
  %31 = load ptr, ptr %11, align 8, !tbaa !40
  %32 = call i32 @bytestream2_get_bytes_left(ptr noundef %31)
  %33 = sext i32 %32 to i64
  %34 = icmp sgt i64 %30, %33
  br i1 %34, label %35, label %36

35:                                               ; preds = %7
  store i32 -1094995529, ptr %8, align 4
  store i32 1, ptr %17, align 4
  br label %86

36:                                               ; preds = %7
  call void @llvm.lifetime.start.p0(i64 4, ptr %18) #7
  store i32 0, ptr %18, align 4, !tbaa !15
  br label %37

37:                                               ; preds = %82, %36
  %38 = load i32, ptr %18, align 4, !tbaa !15
  %39 = load i32, ptr %14, align 4, !tbaa !15
  %40 = icmp ult i32 %38, %39
  br i1 %40, label %42, label %41

41:                                               ; preds = %37
  store i32 2, ptr %17, align 4
  call void @llvm.lifetime.end.p0(i64 4, ptr %18) #7
  br label %85

42:                                               ; preds = %37
  call void @llvm.lifetime.start.p0(i64 8, ptr %19) #7
  %43 = load ptr, ptr %9, align 8, !tbaa !47
  %44 = load i32, ptr %18, align 4, !tbaa !15
  %45 = zext i32 %44 to i64
  %46 = getelementptr inbounds nuw ptr, ptr %43, i64 %45
  %47 = load ptr, ptr %46, align 8, !tbaa !38
  %48 = load i32, ptr %13, align 4, !tbaa !15
  %49 = sub nsw i32 %48, 1
  %50 = sext i32 %49 to i64
  %51 = load ptr, ptr %10, align 8, !tbaa !49
  %52 = load i32, ptr %18, align 4, !tbaa !15
  %53 = zext i32 %52 to i64
  %54 = getelementptr inbounds nuw i64, ptr %51, i64 %53
  %55 = load i64, ptr %54, align 8, !tbaa !39
  %56 = mul nsw i64 %50, %55
  %57 = getelementptr inbounds i8, ptr %47, i64 %56
  store ptr %57, ptr %19, align 8, !tbaa !38
  br label %58

58:                                               ; preds = %72, %42
  br label %59

59:                                               ; preds = %58
  %60 = load ptr, ptr %11, align 8, !tbaa !40
  %61 = load ptr, ptr %19, align 8, !tbaa !38
  %62 = load i32, ptr %16, align 4, !tbaa !15
  %63 = call i32 @bytestream2_get_bufferu(ptr noundef %60, ptr noundef %61, i32 noundef %62)
  %64 = load ptr, ptr %19, align 8, !tbaa !38
  %65 = load ptr, ptr %9, align 8, !tbaa !47
  %66 = load i32, ptr %18, align 4, !tbaa !15
  %67 = zext i32 %66 to i64
  %68 = getelementptr inbounds nuw ptr, ptr %65, i64 %67
  %69 = load ptr, ptr %68, align 8, !tbaa !38
  %70 = icmp eq ptr %64, %69
  br i1 %70, label %71, label %72

71:                                               ; preds = %59
  br label %81

72:                                               ; preds = %59
  %73 = load ptr, ptr %10, align 8, !tbaa !49
  %74 = load i32, ptr %18, align 4, !tbaa !15
  %75 = zext i32 %74 to i64
  %76 = getelementptr inbounds nuw i64, ptr %73, i64 %75
  %77 = load i64, ptr %76, align 8, !tbaa !39
  %78 = load ptr, ptr %19, align 8, !tbaa !38
  %79 = sub i64 0, %77
  %80 = getelementptr inbounds i8, ptr %78, i64 %79
  store ptr %80, ptr %19, align 8, !tbaa !38
  br label %58

81:                                               ; preds = %71
  call void @llvm.lifetime.end.p0(i64 8, ptr %19) #7
  br label %82

82:                                               ; preds = %81
  %83 = load i32, ptr %18, align 4, !tbaa !15
  %84 = add i32 %83, 1
  store i32 %84, ptr %18, align 4, !tbaa !15
  br label %37, !llvm.loop !54

85:                                               ; preds = %41
  store i32 0, ptr %8, align 4
  store i32 1, ptr %17, align 4
  br label %86

86:                                               ; preds = %85, %35
  call void @llvm.lifetime.end.p0(i64 4, ptr %16) #7
  %87 = load i32, ptr %8, align 4
  ret i32 %87
}