; Function Attrs: nofree norecurse nosync nounwind memory(readwrite, inaccessiblemem: none) uwtable
define internal fastcc range(i32 -1094995529, 1) i32 @read_uncompressed_sgi(ptr noundef nonnull readonly captures(none) %0, ptr noundef nonnull readonly captures(none) %1, ptr noundef nonnull captures(none) %2, i32 noundef range(i32 0, 65536) %3, i32 noundef range(i32 0, 65536) %4, i32 noundef range(i32 0, 65536) %5, i32 noundef range(i32 0, 256) %6) unnamed_addr #3 {
  %8 = mul nuw nsw i32 %6, %3
  %9 = zext nneg i32 %8 to i64
  %narrow = mul nuw i32 %5, %4
  %10 = zext i32 %narrow to i64
  %11 = mul nuw nsw i64 %10, %9
  %12 = getelementptr inbounds nuw i8, ptr %2, i64 8
  %13 = load ptr, ptr %12, align 8, !tbaa !18
  %14 = load ptr, ptr %2, align 8, !tbaa !37
  %15 = ptrtoint ptr %13 to i64
  %16 = ptrtoint ptr %14 to i64
  %17 = sub i64 %15, %16
  %sext = shl i64 %17, 32
  %18 = ashr exact i64 %sext, 32
  %19 = icmp sgt i64 %11, %18
  br i1 %19, label %.loopexit, label %.preheader

.preheader:                                       ; preds = %7
  %.not = icmp eq i32 %5, 0
  br i1 %.not, label %.loopexit, label %.lr.ph27

.lr.ph27:                                         ; preds = %.preheader
  %20 = add nsw i32 %4, -1
  %21 = sext i32 %20 to i64
  %wide.trip.count = zext nneg i32 %5 to i64
  br label %22

22:                                               ; preds = %.lr.ph27, %._crit_edge
  %23 = phi ptr [ %14, %.lr.ph27 ], [ %42, %._crit_edge ]
  %indvars.iv = phi i64 [ 0, %.lr.ph27 ], [ %indvars.iv.next, %._crit_edge ]
  %24 = getelementptr inbounds nuw ptr, ptr %0, i64 %indvars.iv
  %25 = load ptr, ptr %24, align 8, !tbaa !20
  %26 = getelementptr inbounds nuw i64, ptr %1, i64 %indvars.iv
  %27 = load i64, ptr %26, align 8, !tbaa !36
  %28 = mul nsw i64 %27, %21
  %29 = getelementptr inbounds i8, ptr %25, i64 %28
  tail call void @llvm.memcpy.p0.p0.i64(ptr align 1 %29, ptr align 1 %23, i64 %9, i1 false)
  %30 = load ptr, ptr %2, align 8, !tbaa !37
  %31 = getelementptr inbounds nuw i8, ptr %30, i64 %9
  store ptr %31, ptr %2, align 8, !tbaa !37
  %32 = load ptr, ptr %24, align 8, !tbaa !20
  %33 = icmp eq ptr %29, %32
  br i1 %33, label %._crit_edge, label %.lr.ph

.lr.ph:                                           ; preds = %22, %.lr.ph
  %34 = phi ptr [ %39, %.lr.ph ], [ %31, %22 ]
  %.025 = phi ptr [ %37, %.lr.ph ], [ %29, %22 ]
  %35 = load i64, ptr %26, align 8, !tbaa !36
  %36 = sub i64 0, %35
  %37 = getelementptr inbounds i8, ptr %.025, i64 %36
  tail call void @llvm.memcpy.p0.p0.i64(ptr align 1 %37, ptr align 1 %34, i64 %9, i1 false)
  %38 = load ptr, ptr %2, align 8, !tbaa !37
  %39 = getelementptr inbounds nuw i8, ptr %38, i64 %9
  store ptr %39, ptr %2, align 8, !tbaa !37
  %40 = load ptr, ptr %24, align 8, !tbaa !20
  %41 = icmp eq ptr %37, %40
  br i1 %41, label %._crit_edge, label %.lr.ph

._crit_edge:                                      ; preds = %.lr.ph, %22
  %42 = phi ptr [ %31, %22 ], [ %39, %.lr.ph ]
  %indvars.iv.next = add nuw nsw i64 %indvars.iv, 1
  %exitcond.not = icmp eq i64 %indvars.iv.next, %wide.trip.count
  br i1 %exitcond.not, label %.loopexit, label %22, !llvm.loop !45

.loopexit:                                        ; preds = %._crit_edge, %.preheader, %7
  %.024 = phi i32 [ -1094995529, %7 ], [ 0, %.preheader ], [ 0, %._crit_edge ]
  ret i32 %.024
}